target datalayout = "e-m:e-p270:32:32-p271:32:32-p272:64:64-i64:64-i128:128-f80:128-n8:16:32:64-S128"
target triple = "x86_64-pc-linux-gnu"

; Function Attrs: nounwind uwtable
define internal i32 @DER_w_keyinfo(ptr noundef %0, ptr noundef %1, i64 noundef %2, ptr noundef %3) #0 {
  %5 = alloca ptr, align 8
  %6 = alloca ptr, align 8
  %7 = alloca i64, align 8
  %8 = alloca ptr, align 8
  store ptr %0, ptr %5, align 8, !tbaa !53
  store ptr %1, ptr %6, align 8, !tbaa !31
  store i64 %2, ptr %7, align 8, !tbaa !32
  store ptr %3, ptr %8, align 8, !tbaa !46
  %9 = load ptr, ptr %5, align 8, !tbaa !53
  %10 = call i32 @ossl_DER_w_begin_sequence(ptr noundef %9, i32 noundef -1)
  %11 = icmp ne i32 %10, 0
  br i1 %11, label %12, label %34

12:                                               ; preds = %4
  %13 = load ptr, ptr %5, align 8, !tbaa !53
  %14 = call i32 @ossl_DER_w_octet_string_uint32(ptr noundef %13, i32 noundef -1, i32 noundef 1)
  %15 = icmp ne i32 %14, 0
  br i1 %15, label %16, label %34

16:                                               ; preds = %12
  %17 = load ptr, ptr %8, align 8, !tbaa !46
  %18 = icmp eq ptr %17, null
  br i1 %18, label %24, label %19

19:                                               ; preds = %16
  %20 = load ptr, ptr %5, align 8, !tbaa !53
  %21 = call ptr @WPACKET_get_curr(ptr noundef %20)
  %22 = load ptr, ptr %8, align 8, !tbaa !46
  store ptr %21, ptr %22, align 8, !tbaa !31
  %23 = icmp ne ptr %21, null
  br i1 %23, label %24, label %34

24:                                               ; preds = %19, %16
  %25 = load ptr, ptr %5, align 8, !tbaa !53
  %26 = load ptr, ptr %6, align 8, !tbaa !31
  %27 = load i64, ptr %7, align 8, !tbaa !32
  %28 = call i32 @ossl_DER_w_precompiled(ptr noundef %25, i32 noundef -1, ptr noundef %26, i64 noundef %27)
  %29 = icmp ne i32 %28, 0
  br i1 %29, label %30, label %34

30:                                               ; preds = %24
  %31 = load ptr, ptr %5, align 8, !tbaa !53
  %32 = call i32 @ossl_DER_w_end_sequence(ptr noundef %31, i32 noundef -1)
  %33 = icmp ne i32 %32, 0
  br label %34

34:                                               ; preds = %30, %24, %19, %12, %4
  %35 = phi i1 [ false, %24 ], [ false, %19 ], [ false, %12 ], [ false, %4 ], [ %33, %30 ]
  %36 = zext i1 %35 to i32
  ret i32 %36
}

; Function Attrs: nounwind uwtable
define internal i32 @der_encode_sharedinfo(ptr noundef %0, ptr noundef %1, i64 noundef %2, ptr noundef %3, i64 noundef %4, ptr noundef %5, i64 noundef %6, ptr noundef %7, i64 noundef %8, ptr noundef %9, i64 noundef %10, ptr noundef %11, i64 noundef %12, ptr noundef %13, i64 noundef %14, i32 noundef %15, ptr noundef %16) #0 {
  %18 = alloca ptr, align 8
  %19 = alloca ptr, align 8
  %20 = alloca i64, align 8
  %21 = alloca ptr, align 8
  %22 = alloca i64, align 8
  %23 = alloca ptr, align 8
  %24 = alloca i64, align 8
  %25 = alloca ptr, align 8
  %26 = alloca i64, align 8
  %27 = alloca ptr, align 8
  %28 = alloca i64, align 8
  %29 = alloca ptr, align 8
  %30 = alloca i64, align 8
  %31 = alloca ptr, align 8
  %32 = alloca i64, align 8
  %33 = alloca i32, align 4
  %34 = alloca ptr, align 8
  store ptr %0, ptr %18, align 8, !tbaa !53
  store ptr %1, ptr %19, align 8, !tbaa !31
  store i64 %2, ptr %20, align 8, !tbaa !32
  store ptr %3, ptr %21, align 8, !tbaa !31
  store i64 %4, ptr %22, align 8, !tbaa !32
  store ptr %5, ptr %23, align 8, !tbaa !31
  store i64 %6, ptr %24, align 8, !tbaa !32
  store ptr %7, ptr %25, align 8, !tbaa !31
  store i64 %8, ptr %26, align 8, !tbaa !32
  store ptr %9, ptr %27, align 8, !tbaa !31
  store i64 %10, ptr %28, align 8, !tbaa !32
  store ptr %11, ptr %29, align 8, !tbaa !31
  store i64 %12, ptr %30, align 8, !tbaa !32
  store ptr %13, ptr %31, align 8, !tbaa !31
  store i64 %14, ptr %32, align 8, !tbaa !32
  store i32 %15, ptr %33, align 4, !tbaa !35
  store ptr %16, ptr %34, align 8, !tbaa !46
  %35 = load ptr, ptr %19, align 8, !tbaa !31
  %36 = icmp ne ptr %35, null
  br i1 %36, label %37, label %43

37:                                               ; preds = %17
  %38 = load ptr, ptr %18, align 8, !tbaa !53
  %39 = load ptr, ptr %19, align 8, !tbaa !31
  %40 = load i64, ptr %20, align 8, !tbaa !32
  %41 = call i32 @WPACKET_init_der(ptr noundef %38, ptr noundef %39, i64 noundef %40)
  %42 = icmp ne i32 %41, 0
  br i1 %42, label %47, label %119

43:                                               ; preds = %17
  %44 = load ptr, ptr %18, align 8, !tbaa !53
  %45 = call i32 @WPACKET_init_null_der(ptr noundef %44)
  %46 = icmp ne i32 %45, 0
  br i1 %46, label %47, label %119

47:                                               ; preds = %43, %37
  %48 = load ptr, ptr %18, align 8, !tbaa !53
  %49 = call i32 @ossl_DER_w_begin_sequence(ptr noundef %48, i32 noundef -1)
  %50 = icmp ne i32 %49, 0
  br i1 %50, label %51, label %119

51:                                               ; preds = %47
  %52 = load ptr, ptr %31, align 8, !tbaa !31
  %53 = icmp eq ptr %52, null
  br i1 %53, label %60, label %54

54:                                               ; preds = %51
  %55 = load ptr, ptr %18, align 8, !tbaa !53
  %56 = load ptr, ptr %31, align 8, !tbaa !31
  %57 = load i64, ptr %32, align 8, !tbaa !32
  %58 = call i32 @ossl_DER_w_octet_string(ptr noundef %55, i32 noundef 3, ptr noundef %56, i64 noundef %57)
  %59 = icmp ne i32 %58, 0
  br i1 %59, label %60, label %119

60:                                               ; preds = %54, %51
  %61 = load ptr, ptr %29, align 8, !tbaa !31
  %62 = icmp eq ptr %61, null
  br i1 %62, label %69, label %63

63:                                               ; preds = %60
  %64 = load ptr, ptr %18, align 8, !tbaa !53
  %65 = load ptr, ptr %29, align 8, !tbaa !31
  %66 = load i64, ptr %30, align 8, !tbaa !32
  %67 = call i32 @ossl_DER_w_octet_string(ptr noundef %64, i32 noundef 2, ptr noundef %65, i64 noundef %66)
  %68 = icmp ne i32 %67, 0
  br i1 %68, label %69, label %119

69:                                               ; preds = %63, %60
  %70 = load i32, ptr %33, align 4, !tbaa !35
  %71 = icmp eq i32 %70, 0
  br i1 %71, label %77, label %72

72:                                               ; preds = %69
  %73 = load ptr, ptr %18, align 8, !tbaa !53
  %74 = load i32, ptr %33, align 4, !tbaa !35
  %75 = call i32 @ossl_DER_w_octet_string_uint32(ptr noundef %73, i32 noundef 2, i32 noundef %74)
  %76 = icmp ne i32 %75, 0
  br i1 %76, label %77, label %119

77:                                               ; preds = %72, %69
  %78 = load ptr, ptr %27, align 8, !tbaa !31
  %79 = icmp eq ptr %78, null
  br i1 %79, label %86, label %80

80:                                               ; preds = %77
  %81 = load ptr, ptr %18, align 8, !tbaa !53
  %82 = load ptr, ptr %27, align 8, !tbaa !31
  %83 = load i64, ptr %28, align 8, !tbaa !32
  %84 = call i32 @ossl_DER_w_octet_string(ptr noundef %81, i32 noundef 1, ptr noundef %82, i64 noundef %83)
  %85 = icmp ne i32 %84, 0
  br i1 %85, label %86, label %119

86:                                               ; preds = %80, %77
  %87 = load ptr, ptr %25, align 8, !tbaa !31
  %88 = icmp eq ptr %87, null
  br i1 %88, label %95, label %89

89:                                               ; preds = %86
  %90 = load ptr, ptr %18, align 8, !tbaa !53
  %91 = load ptr, ptr %25, align 8, !tbaa !31
  %92 = load i64, ptr %26, align 8, !tbaa !32
  %93 = call i32 @ossl_DER_w_octet_string(ptr noundef %90, i32 noundef 0, ptr noundef %91, i64 noundef %92)
  %94 = icmp ne i32 %93, 0
  br i1 %94, label %95, label %119

95:                                               ; preds = %89, %86
  %96 = load ptr, ptr %23, align 8, !tbaa !31
  %97 = icmp eq ptr %96, null
  br i1 %97, label %104, label %98

98:                                               ; preds = %95
  %99 = load ptr, ptr %18, align 8, !tbaa !53
  %100 = load ptr, ptr %23, align 8, !tbaa !31
  %101 = load i64, ptr %24, align 8, !tbaa !32
  %102 = call i32 @ossl_DER_w_precompiled(ptr noundef %99, i32 noundef -1, ptr noundef %100, i64 noundef %101)
  %103 = icmp ne i32 %102, 0
  br i1 %103, label %104, label %119

104:                                              ; preds = %98, %95
  %105 = load ptr, ptr %18, align 8, !tbaa !53
  %106 = load ptr, ptr %21, align 8, !tbaa !31
  %107 = load i64, ptr %22, align 8, !tbaa !32
  %108 = load ptr, ptr %34, align 8, !tbaa !46
  %109 = call i32 @DER_w_keyinfo(ptr noundef %105, ptr noundef %106, i64 noundef %107, ptr noundef %108)
  %110 = icmp ne i32 %109, 0
  br i1 %110, label %111, label %119

111:                                              ; preds = %104
  %112 = load ptr, ptr %18, align 8, !tbaa !53
  %113 = call i32 @ossl_DER_w_end_sequence(ptr noundef %112, i32 noundef -1)
  %114 = icmp ne i32 %113, 0
  br i1 %114, label %115, label %119

115:                                              ; preds = %111
  %116 = load ptr, ptr %18, align 8, !tbaa !53
  %117 = call i32 @WPACKET_finish(ptr noundef %116)
  %118 = icmp ne i32 %117, 0
  br label %119

119:                                              ; preds = %115, %111, %104, %98, %89, %80, %72, %63, %54, %47, %43, %37
  %120 = phi i1 [ false, %111 ], [ false, %104 ], [ false, %98 ], [ false, %89 ], [ false, %80 ], [ false, %72 ], [ false, %63 ], [ false, %54 ], [ false, %47 ], [ false, %43 ], [ false, %37 ], [ %118, %115 ]
  %121 = zext i1 %120 to i32
  ret i32 %121
}