; Function Attrs: nounwind uwtable
define internal fastcc range(i32 0, 2) i32 @der_encode_sharedinfo(ptr noundef nonnull %0, ptr noundef %1, i64 noundef %2, ptr noundef %3, i64 noundef %4, ptr noundef %5, i64 noundef %6, ptr noundef %7, i64 noundef %8, ptr noundef %9, i64 noundef %10, ptr noundef %11, i64 noundef %12, ptr noundef %13, i64 noundef %14, i32 noundef range(i32 0, 134217721) %15, ptr noundef writeonly captures(address_is_null) %16) unnamed_addr #0 {
  %.not = icmp eq ptr %1, null
  br i1 %.not, label %20, label %18

18:                                               ; preds = %17
  %19 = tail call i32 @WPACKET_init_der(ptr noundef nonnull %0, ptr noundef nonnull %1, i64 noundef %2) #7
  %.not41 = icmp eq i32 %19, 0
  br i1 %.not41, label %DER_w_keyinfo.exit.thread, label %22

20:                                               ; preds = %17
  %21 = tail call i32 @WPACKET_init_null_der(ptr noundef nonnull %0) #7
  %.not40 = icmp eq i32 %21, 0
  br i1 %.not40, label %DER_w_keyinfo.exit.thread, label %22

22:                                               ; preds = %20, %18
  %23 = tail call i32 @ossl_DER_w_begin_sequence(ptr noundef nonnull %0, i32 noundef -1) #7
  %.not42 = icmp eq i32 %23, 0
  br i1 %.not42, label %DER_w_keyinfo.exit.thread, label %24

24:                                               ; preds = %22
  %25 = icmp eq ptr %13, null
  br i1 %25, label %28, label %26

26:                                               ; preds = %24
  %27 = tail call i32 @ossl_DER_w_octet_string(ptr noundef nonnull %0, i32 noundef 3, ptr noundef nonnull %13, i64 noundef %14) #7
  %.not43 = icmp eq i32 %27, 0
  br i1 %.not43, label %DER_w_keyinfo.exit.thread, label %28

28:                                               ; preds = %26, %24
  %29 = icmp eq ptr %11, null
  br i1 %29, label %32, label %30

30:                                               ; preds = %28
  %31 = tail call i32 @ossl_DER_w_octet_string(ptr noundef nonnull %0, i32 noundef 2, ptr noundef nonnull %11, i64 noundef %12) #7
  %.not44 = icmp eq i32 %31, 0
  br i1 %.not44, label %DER_w_keyinfo.exit.thread, label %32

32:                                               ; preds = %30, %28
  %33 = icmp eq i32 %15, 0
  br i1 %33, label %36, label %34

34:                                               ; preds = %32
  %35 = tail call i32 @ossl_DER_w_octet_string_uint32(ptr noundef nonnull %0, i32 noundef 2, i32 noundef %15) #7
  %.not45 = icmp eq i32 %35, 0
  br i1 %.not45, label %DER_w_keyinfo.exit.thread, label %36

36:                                               ; preds = %34, %32
  %37 = icmp eq ptr %9, null
  br i1 %37, label %40, label %38

38:                                               ; preds = %36
  %39 = tail call i32 @ossl_DER_w_octet_string(ptr noundef nonnull %0, i32 noundef 1, ptr noundef nonnull %9, i64 noundef %10) #7
  %.not46 = icmp eq i32 %39, 0
  br i1 %.not46, label %DER_w_keyinfo.exit.thread, label %40

40:                                               ; preds = %38, %36
  %41 = icmp eq ptr %7, null
  br i1 %41, label %44, label %42

42:                                               ; preds = %40
  %43 = tail call i32 @ossl_DER_w_octet_string(ptr noundef nonnull %0, i32 noundef 0, ptr noundef nonnull %7, i64 noundef %8) #7
  %.not47 = icmp eq i32 %43, 0
  br i1 %.not47, label %DER_w_keyinfo.exit.thread, label %44

44:                                               ; preds = %42, %40
  %45 = icmp eq ptr %5, null
  br i1 %45, label %48, label %46

46:                                               ; preds = %44
  %47 = tail call i32 @ossl_DER_w_precompiled(ptr noundef nonnull %0, i32 noundef -1, ptr noundef nonnull %5, i64 noundef %6) #7
  %.not48 = icmp eq i32 %47, 0
  br i1 %.not48, label %DER_w_keyinfo.exit.thread, label %48

48:                                               ; preds = %46, %44
  %49 = tail call i32 @ossl_DER_w_begin_sequence(ptr noundef nonnull %0, i32 noundef -1) #7
  %.not.i = icmp eq i32 %49, 0
  br i1 %.not.i, label %DER_w_keyinfo.exit.thread, label %50

50:                                               ; preds = %48
  %51 = tail call i32 @ossl_DER_w_octet_string_uint32(ptr noundef nonnull %0, i32 noundef -1, i32 noundef 1) #7
  %.not8.i = icmp eq i32 %51, 0
  br i1 %.not8.i, label %DER_w_keyinfo.exit.thread, label %52

52:                                               ; preds = %50
  %53 = icmp eq ptr %16, null
  br i1 %53, label %56, label %54

54:                                               ; preds = %52
  %55 = tail call ptr @WPACKET_get_curr(ptr noundef nonnull %0) #7
  store ptr %55, ptr %16, align 8, !tbaa !30
  %.not9.i = icmp eq ptr %55, null
  br i1 %.not9.i, label %DER_w_keyinfo.exit.thread, label %56

56:                                               ; preds = %54, %52
  %57 = tail call i32 @ossl_DER_w_precompiled(ptr noundef nonnull %0, i32 noundef -1, ptr noundef %3, i64 noundef %4) #7
  %.not10.i = icmp eq i32 %57, 0
  br i1 %.not10.i, label %DER_w_keyinfo.exit.thread, label %DER_w_keyinfo.exit

DER_w_keyinfo.exit:                               ; preds = %56
  %58 = tail call i32 @ossl_DER_w_end_sequence(ptr noundef nonnull %0, i32 noundef -1) #7
  %.not52 = icmp eq i32 %58, 0
  br i1 %.not52, label %DER_w_keyinfo.exit.thread, label %59

59:                                               ; preds = %DER_w_keyinfo.exit
  %60 = tail call i32 @ossl_DER_w_end_sequence(ptr noundef nonnull %0, i32 noundef -1) #7
  %.not50 = icmp eq i32 %60, 0
  br i1 %.not50, label %DER_w_keyinfo.exit.thread, label %61

61:                                               ; preds = %59
  %62 = tail call i32 @WPACKET_finish(ptr noundef nonnull %0) #7
  %63 = icmp ne i32 %62, 0
  %64 = zext i1 %63 to i32
  br label %DER_w_keyinfo.exit.thread

DER_w_keyinfo.exit.thread:                        ; preds = %48, %50, %54, %56, %61, %59, %DER_w_keyinfo.exit, %46, %42, %38, %34, %30, %26, %22, %20, %18
  %65 = phi i32 [ 0, %59 ], [ 0, %DER_w_keyinfo.exit ], [ 0, %46 ], [ 0, %42 ], [ 0, %38 ], [ 0, %34 ], [ 0, %30 ], [ 0, %26 ], [ 0, %22 ], [ 0, %20 ], [ 0, %18 ], [ %64, %61 ], [ 0, %56 ], [ 0, %54 ], [ 0, %50 ], [ 0, %48 ]
  ret i32 %65
}